; Function Attrs: mustprogress uwtable
define internal noundef zeroext i1 @"_ZNSt17_Function_handlerIFbRN8facebook5velox6memory10AllocationEEZNS2_15MemoryAllocator18allocateZeroFilledEmE3$_0E9_M_invokeERKSt9_Any_dataS4_"(ptr nocapture noundef nonnull readonly align 8 dereferenceable(16) %__functor, ptr noundef nonnull align 8 dereferenceable(36) %__args) #4 align 2 {
entry:
  %__functor.val = load ptr, ptr %__functor, align 8
  %0 = load ptr, ptr %__functor.val, align 8
  %vtable.i.i.i = load ptr, ptr %0, align 8
  %vfn.i.i.i = getelementptr inbounds i8, ptr %vtable.i.i.i, i64 40
  %1 = load ptr, ptr %vfn.i.i.i, align 8
  %call.i.i.i = tail call noundef i64 %1(ptr noundef nonnull align 8 dereferenceable(880) %0, ptr noundef nonnull align 8 dereferenceable(36) %__args)
  %2 = getelementptr inbounds i8, ptr %__functor.val, i64 16
  %3 = load ptr, ptr %2, align 8
  %4 = load i64, ptr %3, align 8
  %vtable2.i.i.i = load ptr, ptr %0, align 8
  %vfn3.i.i.i = getelementptr inbounds i8, ptr %vtable2.i.i.i, i64 160
  %5 = load ptr, ptr %vfn3.i.i.i, align 8
  %call4.i.i.i = tail call noundef ptr %5(ptr noundef nonnull align 8 dereferenceable(880) %0, i64 noundef %4)
  %6 = getelementptr inbounds i8, ptr %__functor.val, i64 8
  %7 = load ptr, ptr %6, align 8
  store ptr %call4.i.i.i, ptr %7, align 8
  %8 = load ptr, ptr %6, align 8
  %9 = load ptr, ptr %8, align 8
  %cmp.i.i.i = icmp ne ptr %9, null
  ret i1 %cmp.i.i.i
}